target datalayout = "e-m:e-p270:32:32-p271:32:32-p272:64:64-i64:64-i128:128-f80:128-n8:16:32:64-S128"
target triple = "x86_64-unknown-linux-gnu"

module asm ".section \22.export_symbol\22,\22a\22 ; __export_symbol_sound_class: ; .asciz \22\22 ; .asciz \22\22 ; .balign 8 ; .quad sound_class ; .previous"
module asm ".section\09\22.initcall4.init\22, \22a\22\09\09"
module asm "__initcall__kmod_soundcore__318_66_init_soundcore4:\09\09\09"
module asm ".long\09init_soundcore - .\09"
module asm ".previous\09\09\09\09\09"

%struct.class = type { ptr, ptr, ptr, ptr, ptr, ptr, ptr, ptr, ptr, ptr, ptr, ptr }

@__UNIQUE_ID_description313 = internal constant [40 x i8] c"soundcore.description=Core sound module\00", section ".modinfo", align 1
@__UNIQUE_ID_author314 = internal constant [26 x i8] c"soundcore.author=Alan Cox\00", section ".modinfo", align 1
@__UNIQUE_ID_file315 = internal constant [31 x i8] c"soundcore.file=sound/soundcore\00", section ".modinfo", align 1
@__UNIQUE_ID_license316 = internal constant [22 x i8] c"soundcore.license=GPL\00", section ".modinfo", align 1
@.str = private unnamed_addr constant [6 x i8] c"sound\00", align 1
@sound_class = dso_local constant %struct.class { ptr @.str, ptr null, ptr null, ptr null, ptr @sound_devnode, ptr null, ptr null, ptr null, ptr null, ptr null, ptr null, ptr null }, align 8
@__UNIQUE_ID___addressable_sound_class317 = internal global ptr @sound_class, section ".discard.addressable", align 8
@__UNIQUE_ID___addressable_init_soundcore319 = internal global ptr @init_soundcore, section ".discard.addressable", align 8
@__exitcall_cleanup_soundcore = internal global ptr @cleanup_soundcore, section ".exitcall.exit", align 8
@.str.1 = private unnamed_addr constant [7 x i8] c"snd/%s\00", align 1
@llvm.compiler.used = appending global [8 x ptr] [ptr @__UNIQUE_ID___addressable_init_soundcore319, ptr @__UNIQUE_ID___addressable_sound_class317, ptr @__UNIQUE_ID_author314, ptr @__UNIQUE_ID_description313, ptr @__UNIQUE_ID_file315, ptr @__UNIQUE_ID_license316, ptr @__exitcall_cleanup_soundcore, ptr @cleanup_soundcore], section "llvm.metadata"

; Function Attrs: fn_ret_thunk_extern nounwind null_pointer_is_valid
define internal noalias ptr @sound_devnode(ptr nocapture noundef readonly %0, ptr nocapture readnone %1) #0 align 16 {
  %3 = getelementptr inbounds i8, ptr %0, i64 644
  %4 = load i32, ptr %3, align 4
  %5 = and i32 %4, -1048576
  %6 = icmp eq i32 %5, 14680064
  br i1 %6, label %16, label %7

7:                                                ; preds = %2
  %8 = getelementptr inbounds i8, ptr %0, i64 80
  %9 = load ptr, ptr %8, align 8
  %10 = icmp eq ptr %9, null
  br i1 %10, label %11, label %13

11:                                               ; preds = %7
  %12 = load ptr, ptr %0, align 8
  br label %13

13:                                               ; preds = %11, %7
  %14 = phi ptr [ %12, %11 ], [ %9, %7 ]
  %15 = tail call noalias ptr (i32, ptr, ...) @kasprintf(i32 noundef 3264, ptr noundef nonnull @.str.1, ptr noundef %14) #3
  br label %16

16:                                               ; preds = %13, %2
  %17 = phi ptr [ %15, %13 ], [ null, %2 ]
  ret ptr %17
}

; Function Attrs: cold fn_ret_thunk_extern nounwind null_pointer_is_valid optsize
define internal void @cleanup_soundcore() #1 section ".exit.text" align 16 {
  tail call void @class_unregister(ptr noundef nonnull @sound_class) #3
  ret void
}

; Function Attrs: null_pointer_is_valid
declare dso_local void @class_unregister(ptr noundef) local_unnamed_addr #2

; Function Attrs: cold fn_ret_thunk_extern nounwind null_pointer_is_valid optsize
define internal i32 @init_soundcore() #1 section ".init.text" align 16 {
  %1 = tail call i32 @class_register(ptr noundef nonnull @sound_class) #3
  ret i32 %1
}

; Function Attrs: null_pointer_is_valid
declare dso_local noalias ptr @kasprintf(i32 noundef, ptr noundef, ...) local_unnamed_addr #2

; Function Attrs: null_pointer_is_valid
declare dso_local i32 @class_register(ptr noundef) local_unnamed_addr #2


!llvm.module.flags = !{!0, !1, !2, !3, !4}

!0 = !{i32 1, !"wchar_size", i32 2}
!1 = !{i32 8, !"cf-protection-branch", i32 1}
!2 = !{i32 4, !"function_return_thunk_extern", i32 1}
!3 = !{i32 4, !"indirect_branch_cs_prefix", i32 1}
!4 = !{i32 4, !"SkipRaxSetup", i32 1}
